; ModuleID = 'source-C-CXX/8/830.c'
source_filename = "source-C-CXX/8/830.c"
target datalayout = "e-m:e-p270:32:32-p271:32:32-p272:64:64-i64:64-f80:128-n8:16:32:64-S128"
target triple = "x86_64-pc-linux-gnu"

%struct._IO_FILE = type { i32, i8*, i8*, i8*, i8*, i8*, i8*, i8*, i8*, i8*, i8*, i8*, %struct._IO_marker*, %struct._IO_FILE*, i32, i32, i64, i16, i8, [1 x i8], i8*, i64, %struct._IO_codecvt*, %struct._IO_wide_data*, %struct._IO_FILE*, i8*, i64, i32, [20 x i8] }
%struct._IO_marker = type opaque
%struct._IO_codecvt = type opaque
%struct._IO_wide_data = type opaque

@.str = private unnamed_addr constant [3 x i8] c"%d\00", align 1
@.str.1 = private unnamed_addr constant [5 x i8] c"%s%d\00", align 1
@id = dso_local global [101 x [11 x i8]] zeroinitializer, align 16
@stdin = external local_unnamed_addr global %struct._IO_FILE*, align 8

; Function Attrs: nofree nounwind sspstrong uwtable
define dso_local i32 @main() local_unnamed_addr #0 {
  %1 = alloca i32, align 4
  %2 = alloca [101 x i32], align 16
  %3 = alloca [101 x i32], align 16
  %4 = bitcast i32* %1 to i8*
  call void @llvm.lifetime.start.p0i8(i64 4, i8* nonnull %4) #4
  %5 = bitcast [101 x i32]* %2 to i8*
  call void @llvm.lifetime.start.p0i8(i64 404, i8* nonnull %5) #4
  %6 = bitcast [101 x i32]* %3 to i8*
  call void @llvm.lifetime.start.p0i8(i64 404, i8* nonnull %6) #4
  %7 = call i32 (i8*, ...) @__isoc99_scanf(i8* getelementptr inbounds ([3 x i8], [3 x i8]* @.str, i64 0, i64 0), i32* nonnull %1)
  %8 = load i32, i32* %1, align 4, !tbaa !5
  %9 = icmp slt i32 %8, 1
  br i1 %9, label %44, label %12

10:                                               ; preds = %35
  %11 = icmp slt i32 %41, 1
  br i1 %11, label %44, label %49

12:                                               ; preds = %0, %35
  %13 = phi i64 [ %40, %35 ], [ 1, %0 ]
  %14 = getelementptr inbounds [101 x [11 x i8]], [101 x [11 x i8]]* @id, i64 0, i64 %13, i64 0
  %15 = getelementptr inbounds [101 x i32], [101 x i32]* %2, i64 0, i64 %13
  %16 = call i32 (i8*, ...) @__isoc99_scanf(i8* getelementptr inbounds ([5 x i8], [5 x i8]* @.str.1, i64 0, i64 0), i8* nonnull %14, i32* nonnull %15)
  %17 = load i32, i32* %15, align 4, !tbaa !5
  %18 = icmp sgt i32 %17, 59
  %19 = icmp ugt i64 %13, 1
  %20 = select i1 %18, i1 %19, i1 false
  %21 = trunc i64 %13 to i32
  br i1 %20, label %22, label %35

22:                                               ; preds = %12, %32
  %23 = phi i64 [ %24, %32 ], [ %13, %12 ]
  %24 = add nsw i64 %23, -1
  %25 = and i64 %24, 4294967295
  %26 = getelementptr inbounds [101 x i32], [101 x i32]* %3, i64 0, i64 %25
  %27 = load i32, i32* %26, align 4, !tbaa !5
  %28 = sext i32 %27 to i64
  %29 = getelementptr inbounds [101 x i32], [101 x i32]* %2, i64 0, i64 %28
  %30 = load i32, i32* %29, align 4, !tbaa !5
  %31 = icmp slt i32 %30, %17
  br i1 %31, label %32, label %35

32:                                               ; preds = %22
  %33 = getelementptr inbounds [101 x i32], [101 x i32]* %3, i64 0, i64 %23
  store i32 %27, i32* %33, align 4, !tbaa !5
  %34 = icmp sgt i64 %23, 2
  br i1 %34, label %22, label %35

35:                                               ; preds = %22, %32, %12
  %36 = phi i64 [ %13, %12 ], [ %23, %22 ], [ 1, %32 ]
  %37 = shl i64 %36, 32
  %38 = ashr exact i64 %37, 32
  %39 = getelementptr inbounds [101 x i32], [101 x i32]* %3, i64 0, i64 %38
  store i32 %21, i32* %39, align 4, !tbaa !5
  %40 = add nuw nsw i64 %13, 1
  %41 = load i32, i32* %1, align 4, !tbaa !5
  %42 = sext i32 %41 to i64
  %43 = icmp slt i64 %13, %42
  br i1 %43, label %12, label %10, !llvm.loop !9

44:                                               ; preds = %49, %0, %10
  %45 = load %struct._IO_FILE*, %struct._IO_FILE** @stdin, align 8, !tbaa !11
  %46 = call i32 @getc(%struct._IO_FILE* %45) #4
  %47 = load %struct._IO_FILE*, %struct._IO_FILE** @stdin, align 8, !tbaa !11
  %48 = call i32 @getc(%struct._IO_FILE* %47) #4
  call void @llvm.lifetime.end.p0i8(i64 404, i8* nonnull %6) #4
  call void @llvm.lifetime.end.p0i8(i64 404, i8* nonnull %5) #4
  call void @llvm.lifetime.end.p0i8(i64 4, i8* nonnull %4) #4
  ret i32 0

49:                                               ; preds = %10, %49
  %50 = phi i64 [ %56, %49 ], [ 1, %10 ]
  %51 = getelementptr inbounds [101 x i32], [101 x i32]* %3, i64 0, i64 %50
  %52 = load i32, i32* %51, align 4, !tbaa !5
  %53 = sext i32 %52 to i64
  %54 = getelementptr inbounds [101 x [11 x i8]], [101 x [11 x i8]]* @id, i64 0, i64 %53, i64 0
  %55 = call i32 @puts(i8* nonnull %54)
  %56 = add nuw nsw i64 %50, 1
  %57 = load i32, i32* %1, align 4, !tbaa !5
  %58 = sext i32 %57 to i64
  %59 = icmp slt i64 %50, %58
  br i1 %59, label %49, label %44, !llvm.loop !13
}

; Function Attrs: argmemonly mustprogress nofree nosync nounwind willreturn
declare void @llvm.lifetime.start.p0i8(i64 immarg, i8* nocapture) #1

; Function Attrs: nofree nounwind
declare noundef i32 @__isoc99_scanf(i8* nocapture noundef readonly, ...) local_unnamed_addr #2

; Function Attrs: argmemonly mustprogress nofree nosync nounwind willreturn
declare void @llvm.lifetime.end.p0i8(i64 immarg, i8* nocapture) #1

; Function Attrs: nofree nounwind
declare noundef i32 @getc(%struct._IO_FILE* nocapture noundef) local_unnamed_addr #2

; Function Attrs: nofree nounwind
declare noundef i32 @puts(i8* nocapture noundef readonly) local_unnamed_addr #3


!llvm.module.flags = !{!0, !1, !2, !3}
!llvm.ident = !{!4}

!0 = !{i32 1, !"wchar_size", i32 4}
!1 = !{i32 7, !"PIC Level", i32 2}
!2 = !{i32 7, !"PIE Level", i32 2}
!3 = !{i32 7, !"uwtable", i32 1}
!4 = !{!"clang version 13.0.0"}
!5 = !{!6, !6, i64 0}
!6 = !{!"int", !7, i64 0}
!7 = !{!"omnipotent char", !8, i64 0}
!8 = !{!"Simple C/C++ TBAA"}
!9 = distinct !{!9, !10}
!10 = !{!"llvm.loop.mustprogress"}
!11 = !{!12, !12, i64 0}
!12 = !{!"any pointer", !7, i64 0}
!13 = distinct !{!13, !10}
